; ModuleID = '55/31.c'
source_filename = "55/31.c"
target datalayout = "e-m:e-p270:32:32-p271:32:32-p272:64:64-i64:64-f80:128-n8:16:32:64-S128"
target triple = "x86_64-pc-linux-gnu"

@.str = private unnamed_addr constant [3 x i8] c"%d\00", align 1
@.str.1 = private unnamed_addr constant [3 x i8] c"%s\00", align 1
@.str.2 = private unnamed_addr constant [2 x i8] c"\0A\00", align 1

; Function Attrs: noinline nounwind uwtable
define dso_local i32 @main() #0 {
  %1 = alloca i32, align 4
  %2 = alloca i32, align 4
  %3 = alloca i32, align 4
  %4 = alloca i8*, align 8
  %5 = alloca i8*, align 8
  %6 = alloca i32*, align 8
  %7 = alloca i32, align 4
  %8 = alloca i32, align 4
  %9 = alloca i64, align 8
  %10 = alloca i32, align 4
  %11 = alloca i32*, align 8
  %12 = alloca i32, align 4
  store i32 0, i32* %1, align 4
  %13 = call noalias i8* @malloc(i64 64) #4
  store i8* %13, i8** %4, align 8
  %14 = call noalias i8* @malloc(i64 64) #4
  %15 = bitcast i8* %14 to i32*
  store i32* %15, i32** %6, align 8
  %16 = call noalias i8* @malloc(i64 64) #4
  store i8* %16, i8** %5, align 8
  %17 = call i32 (i8*, ...) @__isoc99_scanf(i8* getelementptr inbounds ([3 x i8], [3 x i8]* @.str, i64 0, i64 0), i32* %2)
  %18 = load i8*, i8** %4, align 8
  %19 = call i32 (i8*, ...) @__isoc99_scanf(i8* getelementptr inbounds ([3 x i8], [3 x i8]* @.str.1, i64 0, i64 0), i8* %18)
  %20 = call i32 (i8*, ...) @__isoc99_scanf(i8* getelementptr inbounds ([3 x i8], [3 x i8]* @.str, i64 0, i64 0), i32* %3)
  %21 = load i8*, i8** %4, align 8
  %22 = call i64 @strlen(i8* %21) #5
  %23 = trunc i64 %22 to i32
  store i32 %23, i32* %7, align 4
  store i64 0, i64* %9, align 8
  store i32 0, i32* %8, align 4
  br label %24

24:                                               ; preds = %61, %0
  %25 = load i8*, i8** %4, align 8
  %26 = load i32, i32* %8, align 4
  %27 = sext i32 %26 to i64
  %28 = getelementptr inbounds i8, i8* %25, i64 %27
  %29 = load i8, i8* %28, align 1
  %30 = sext i8 %29 to i32
  %31 = icmp ne i32 %30, 0
  br i1 %31, label %32, label %64

32:                                               ; preds = %24
  %33 = load i8*, i8** %4, align 8
  %34 = load i32, i32* %8, align 4
  %35 = sext i32 %34 to i64
  %36 = getelementptr inbounds i8, i8* %33, i64 %35
  %37 = load i8, i8* %36, align 1
  %38 = call i32 @huan(i8 signext %37)
  %39 = load i32*, i32** %6, align 8
  %40 = load i32, i32* %8, align 4
  %41 = sext i32 %40 to i64
  %42 = getelementptr inbounds i32, i32* %39, i64 %41
  store i32 %38, i32* %42, align 4
  %43 = load i32*, i32** %6, align 8
  %44 = load i32, i32* %8, align 4
  %45 = sext i32 %44 to i64
  %46 = getelementptr inbounds i32, i32* %43, i64 %45
  %47 = load i32, i32* %46, align 4
  %48 = sitofp i32 %47 to double
  %49 = load i32, i32* %2, align 4
  %50 = sitofp i32 %49 to double
  %51 = load i32, i32* %7, align 4
  %52 = sub nsw i32 %51, 1
  %53 = load i32, i32* %8, align 4
  %54 = sub nsw i32 %52, %53
  %55 = sitofp i32 %54 to double
  %56 = call double @pow(double %50, double %55) #4
  %57 = fmul double %48, %56
  %58 = fptosi double %57 to i64
  %59 = load i64, i64* %9, align 8
  %60 = add nsw i64 %59, %58
  store i64 %60, i64* %9, align 8
  br label %61

61:                                               ; preds = %32
  %62 = load i32, i32* %8, align 4
  %63 = add nsw i32 %62, 1
  store i32 %63, i32* %8, align 4
  br label %24

64:                                               ; preds = %24
  %65 = load i32, i32* %8, align 4
  %66 = sub nsw i32 %65, 1
  store i32 %66, i32* %10, align 4
  %67 = call noalias i8* @malloc(i64 64) #4
  %68 = bitcast i8* %67 to i32*
  store i32* %68, i32** %11, align 8
  store i32 0, i32* %10, align 4
  br label %69

69:                                               ; preds = %86, %64
  %70 = load i64, i64* %9, align 8
  %71 = icmp ne i64 %70, 0
  br i1 %71, label %72, label %89

72:                                               ; preds = %69
  %73 = load i64, i64* %9, align 8
  %74 = load i32, i32* %3, align 4
  %75 = sext i32 %74 to i64
  %76 = srem i64 %73, %75
  %77 = trunc i64 %76 to i32
  %78 = load i32*, i32** %11, align 8
  %79 = load i32, i32* %10, align 4
  %80 = sext i32 %79 to i64
  %81 = getelementptr inbounds i32, i32* %78, i64 %80
  store i32 %77, i32* %81, align 4
  %82 = load i64, i64* %9, align 8
  %83 = load i32, i32* %3, align 4
  %84 = sext i32 %83 to i64
  %85 = sdiv i64 %82, %84
  store i64 %85, i64* %9, align 8
  br label %86

86:                                               ; preds = %72
  %87 = load i32, i32* %10, align 4
  %88 = add nsw i32 %87, 1
  store i32 %88, i32* %10, align 4
  br label %69

89:                                               ; preds = %69
  %90 = load i32, i32* %10, align 4
  %91 = add nsw i32 %90, -1
  store i32 %91, i32* %10, align 4
  store i32 0, i32* %12, align 4
  br label %92

92:                                               ; preds = %106, %89
  %93 = load i32, i32* %10, align 4
  %94 = icmp sge i32 %93, 0
  br i1 %94, label %95, label %111

95:                                               ; preds = %92
  %96 = load i32*, i32** %11, align 8
  %97 = load i32, i32* %10, align 4
  %98 = sext i32 %97 to i64
  %99 = getelementptr inbounds i32, i32* %96, i64 %98
  %100 = load i32, i32* %99, align 4
  %101 = call signext i8 @huan2(i32 %100)
  %102 = load i8*, i8** %5, align 8
  %103 = load i32, i32* %12, align 4
  %104 = sext i32 %103 to i64
  %105 = getelementptr inbounds i8, i8* %102, i64 %104
  store i8 %101, i8* %105, align 1
  br label %106

106:                                              ; preds = %95
  %107 = load i32, i32* %10, align 4
  %108 = add nsw i32 %107, -1
  store i32 %108, i32* %10, align 4
  %109 = load i32, i32* %12, align 4
  %110 = add nsw i32 %109, 1
  store i32 %110, i32* %12, align 4
  br label %92

111:                                              ; preds = %92
  %112 = load i8*, i8** %5, align 8
  %113 = load i32, i32* %12, align 4
  %114 = sext i32 %113 to i64
  %115 = getelementptr inbounds i8, i8* %112, i64 %114
  store i8 0, i8* %115, align 1
  %116 = load i8*, i8** %5, align 8
  %117 = call i32 (i8*, ...) @printf(i8* getelementptr inbounds ([3 x i8], [3 x i8]* @.str.1, i64 0, i64 0), i8* %116)
  %118 = call i32 (i8*, ...) @printf(i8* getelementptr inbounds ([2 x i8], [2 x i8]* @.str.2, i64 0, i64 0))
  %119 = load i8*, i8** %4, align 8
  call void @free(i8* %119) #4
  %120 = load i32*, i32** %6, align 8
  %121 = bitcast i32* %120 to i8*
  call void @free(i8* %121) #4
  %122 = load i8*, i8** %5, align 8
  call void @free(i8* %122) #4
  ret i32 0
}

; Function Attrs: nounwind
declare dso_local noalias i8* @malloc(i64) #1

declare dso_local i32 @__isoc99_scanf(i8*, ...) #2

; Function Attrs: nounwind readonly
declare dso_local i64 @strlen(i8*) #3

; Function Attrs: noinline nounwind uwtable
define dso_local i32 @huan(i8 signext %0) #0 {
  %2 = alloca i32, align 4
  %3 = alloca i8, align 1
  store i8 %0, i8* %3, align 1
  %4 = load i8, i8* %3, align 1
  %5 = sext i8 %4 to i32
  %6 = icmp sle i32 %5, 57
  br i1 %6, label %7, label %11

7:                                                ; preds = %1
  %8 = load i8, i8* %3, align 1
  %9 = sext i8 %8 to i32
  %10 = sub nsw i32 %9, 48
  store i32 %10, i32* %2, align 4
  br label %38

11:                                               ; preds = %1
  %12 = load i8, i8* %3, align 1
  %13 = sext i8 %12 to i32
  %14 = icmp sge i32 %13, 97
  br i1 %14, label %15, label %23

15:                                               ; preds = %11
  %16 = load i8, i8* %3, align 1
  %17 = sext i8 %16 to i32
  %18 = icmp sle i32 %17, 122
  br i1 %18, label %19, label %23

19:                                               ; preds = %15
  %20 = load i8, i8* %3, align 1
  %21 = sext i8 %20 to i32
  %22 = sub nsw i32 %21, 87
  store i32 %22, i32* %2, align 4
  br label %38

23:                                               ; preds = %15, %11
  %24 = load i8, i8* %3, align 1
  %25 = sext i8 %24 to i32
  %26 = icmp sge i32 %25, 65
  br i1 %26, label %27, label %35

27:                                               ; preds = %23
  %28 = load i8, i8* %3, align 1
  %29 = sext i8 %28 to i32
  %30 = icmp sle i32 %29, 90
  br i1 %30, label %31, label %35

31:                                               ; preds = %27
  %32 = load i8, i8* %3, align 1
  %33 = sext i8 %32 to i32
  %34 = sub nsw i32 %33, 55
  store i32 %34, i32* %2, align 4
  br label %38

35:                                               ; preds = %27, %23
  br label %36

36:                                               ; preds = %35
  br label %37

37:                                               ; preds = %36
  store i32 0, i32* %2, align 4
  br label %38

38:                                               ; preds = %37, %31, %19, %7
  %39 = load i32, i32* %2, align 4
  ret i32 %39
}

; Function Attrs: nounwind
declare dso_local double @pow(double, double) #1

; Function Attrs: noinline nounwind uwtable
define dso_local signext i8 @huan2(i32 %0) #0 {
  %2 = alloca i8, align 1
  %3 = alloca i32, align 4
  store i32 %0, i32* %3, align 4
  %4 = load i32, i32* %3, align 4
  %5 = icmp sle i32 %4, 9
  br i1 %5, label %6, label %10

6:                                                ; preds = %1
  %7 = load i32, i32* %3, align 4
  %8 = add nsw i32 %7, 48
  %9 = trunc i32 %8 to i8
  store i8 %9, i8* %2, align 1
  br label %18

10:                                               ; preds = %1
  %11 = load i32, i32* %3, align 4
  %12 = icmp sge i32 %11, 10
  br i1 %12, label %13, label %17

13:                                               ; preds = %10
  %14 = load i32, i32* %3, align 4
  %15 = add nsw i32 %14, 55
  %16 = trunc i32 %15 to i8
  store i8 %16, i8* %2, align 1
  br label %18

17:                                               ; preds = %10
  store i8 0, i8* %2, align 1
  br label %18

18:                                               ; preds = %17, %13, %6
  %19 = load i8, i8* %2, align 1
  ret i8 %19
}

declare dso_local i32 @printf(i8*, ...) #2

; Function Attrs: nounwind
declare dso_local void @free(i8*) #1


!llvm.module.flags = !{!0}
!llvm.ident = !{!1}

!0 = !{i32 1, !"wchar_size", i32 4}
!1 = !{!"clang version 10.0.0-4ubuntu1 "}
